target datalayout = "e-m:e-p270:32:32-p271:32:32-p272:64:64-i64:64-i128:128-f80:128-n8:16:32:64-S128"
target triple = "x86_64-pc-linux-gnu"

; Function Attrs: nounwind uwtable
define internal void @Float32_To_Int16_DitherClip(ptr noundef %0, i32 noundef %1, ptr noundef %2, i32 noundef %3, i32 noundef %4, ptr noundef %5) #0 {
  %7 = alloca ptr, align 8
  %8 = alloca i32, align 4
  %9 = alloca ptr, align 8
  %10 = alloca i32, align 4
  %11 = alloca i32, align 4
  %12 = alloca ptr, align 8
  %13 = alloca ptr, align 8
  %14 = alloca ptr, align 8
  %15 = alloca float, align 4
  %16 = alloca float, align 4
  %17 = alloca i32, align 4
  store ptr %0, ptr %7, align 8, !tbaa !70
  store i32 %1, ptr %8, align 4, !tbaa !71
  store ptr %2, ptr %9, align 8, !tbaa !70
  store i32 %3, ptr %10, align 4, !tbaa !71
  store i32 %4, ptr %11, align 4, !tbaa !71
  store ptr %5, ptr %12, align 8, !tbaa !73
  call void @llvm.lifetime.start.p0(i64 8, ptr %13) #4
  %18 = load ptr, ptr %9, align 8, !tbaa !70
  store ptr %18, ptr %13, align 8, !tbaa !75
  call void @llvm.lifetime.start.p0(i64 8, ptr %14) #4
  %19 = load ptr, ptr %7, align 8, !tbaa !70
  store ptr %19, ptr %14, align 8, !tbaa !94
  br label %20

20:                                               ; preds = %44, %6
  %21 = load i32, ptr %11, align 4, !tbaa !71
  %22 = add i32 %21, -1
  store i32 %22, ptr %11, align 4, !tbaa !71
  %23 = icmp ne i32 %21, 0
  br i1 %23, label %24, label %57

24:                                               ; preds = %20
  call void @llvm.lifetime.start.p0(i64 4, ptr %15) #4
  %25 = load ptr, ptr %12, align 8, !tbaa !73
  %26 = call float @PaUtil_GenerateFloatTriangularDither(ptr noundef %25)
  store float %26, ptr %15, align 4, !tbaa !79
  call void @llvm.lifetime.start.p0(i64 4, ptr %16) #4
  %27 = load ptr, ptr %13, align 8, !tbaa !75
  %28 = load float, ptr %27, align 4, !tbaa !79
  %29 = load float, ptr %15, align 4, !tbaa !79
  %30 = call float @llvm.fmuladd.f32(float %28, float 3.276600e+04, float %29)
  store float %30, ptr %16, align 4, !tbaa !79
  call void @llvm.lifetime.start.p0(i64 4, ptr %17) #4
  %31 = load float, ptr %16, align 4, !tbaa !79
  %32 = fptosi float %31 to i32
  store i32 %32, ptr %17, align 4, !tbaa !71
  %33 = load i32, ptr %17, align 4, !tbaa !71
  %34 = icmp slt i32 %33, -32768
  br i1 %34, label %35, label %36

35:                                               ; preds = %24
  br label %44

36:                                               ; preds = %24
  %37 = load i32, ptr %17, align 4, !tbaa !71
  %38 = icmp sgt i32 %37, 32767
  br i1 %38, label %39, label %40

39:                                               ; preds = %36
  br label %42

40:                                               ; preds = %36
  %41 = load i32, ptr %17, align 4, !tbaa !71
  br label %42

42:                                               ; preds = %40, %39
  %43 = phi i32 [ 32767, %39 ], [ %41, %40 ]
  br label %44

44:                                               ; preds = %42, %35
  %45 = phi i32 [ -32768, %35 ], [ %43, %42 ]
  store i32 %45, ptr %17, align 4, !tbaa !71
  %46 = load i32, ptr %17, align 4, !tbaa !71
  %47 = trunc i32 %46 to i16
  %48 = load ptr, ptr %14, align 8, !tbaa !94
  store i16 %47, ptr %48, align 2, !tbaa !96
  %49 = load i32, ptr %10, align 4, !tbaa !71
  %50 = load ptr, ptr %13, align 8, !tbaa !75
  %51 = sext i32 %49 to i64
  %52 = getelementptr inbounds float, ptr %50, i64 %51
  store ptr %52, ptr %13, align 8, !tbaa !75
  %53 = load i32, ptr %8, align 4, !tbaa !71
  %54 = load ptr, ptr %14, align 8, !tbaa !94
  %55 = sext i32 %53 to i64
  %56 = getelementptr inbounds i16, ptr %54, i64 %55
  store ptr %56, ptr %14, align 8, !tbaa !94
  call void @llvm.lifetime.end.p0(i64 4, ptr %17) #4
  call void @llvm.lifetime.end.p0(i64 4, ptr %16) #4
  call void @llvm.lifetime.end.p0(i64 4, ptr %15) #4
  br label %20, !llvm.loop !101

57:                                               ; preds = %20
  call void @llvm.lifetime.end.p0(i64 8, ptr %14) #4
  call void @llvm.lifetime.end.p0(i64 8, ptr %13) #4
  ret void
}